target datalayout = "e-m:e-p270:32:32-p271:32:32-p272:64:64-i64:64-i128:128-f80:128-n8:16:32:64-S128"
target triple = "x86_64-pc-linux-gnu"

%struct.AVDES = type { [3 x [16 x i64]], i32 }

@PC1_shuffle = internal constant [56 x i8] c"\07\0F\17\1F'/7?\06\0E\16\1E&.6>\05\0D\15\1D%-5=\04\0C\14\1C\01\09\11\19!)19\02\0A\12\1A\22*2:\03\0B\13\1B#+3;$,4<", align 16
@PC2_shuffle = internal constant [48 x i8] c"*'- 735\1C)2#.!%,4\1E0(1\1D$+6\0F\04\19\13\09\01\1A\10\05\0B\17\08\0C\07\11\00\16\03\0A\0E\06\14\1B\18", align 16

; Function Attrs: nounwind uwtable
define internal i64 @key_shift_left(i64 noundef %0) #0 {
  %2 = alloca i64, align 8
  %3 = alloca i64, align 8
  store i64 %0, ptr %2, align 8, !tbaa !18
  call void @llvm.lifetime.start.p0(i64 8, ptr %3) #6
  %4 = load i64, ptr %2, align 8, !tbaa !18
  %5 = lshr i64 %4, 27
  %6 = and i64 %5, 268435457
  store i64 %6, ptr %3, align 8, !tbaa !18
  %7 = load i64, ptr %2, align 8, !tbaa !18
  %8 = shl i64 %7, 1
  store i64 %8, ptr %2, align 8, !tbaa !18
  %9 = load i64, ptr %2, align 8, !tbaa !18
  %10 = and i64 %9, -268435458
  store i64 %10, ptr %2, align 8, !tbaa !18
  %11 = load i64, ptr %3, align 8, !tbaa !18
  %12 = load i64, ptr %2, align 8, !tbaa !18
  %13 = or i64 %12, %11
  store i64 %13, ptr %2, align 8, !tbaa !18
  %14 = load i64, ptr %2, align 8, !tbaa !18
  call void @llvm.lifetime.end.p0(i64 8, ptr %3) #6
  ret i64 %14
}

; Function Attrs: nounwind uwtable
define internal i64 @shuffle(i64 noundef %0, ptr noundef %1, i32 noundef %2) #0 {
  %4 = alloca i64, align 8
  %5 = alloca ptr, align 8
  %6 = alloca i32, align 4
  %7 = alloca i32, align 4
  %8 = alloca i64, align 8
  store i64 %0, ptr %4, align 8, !tbaa !18
  store ptr %1, ptr %5, align 8, !tbaa !9
  store i32 %2, ptr %6, align 4, !tbaa !11
  call void @llvm.lifetime.start.p0(i64 4, ptr %7) #6
  call void @llvm.lifetime.start.p0(i64 8, ptr %8) #6
  store i64 0, ptr %8, align 8, !tbaa !18
  store i32 0, ptr %7, align 4, !tbaa !11
  br label %9

9:                                                ; preds = %26, %3
  %10 = load i32, ptr %7, align 4, !tbaa !11
  %11 = load i32, ptr %6, align 4, !tbaa !11
  %12 = icmp slt i32 %10, %11
  br i1 %12, label %13, label %29

13:                                               ; preds = %9
  %14 = load i64, ptr %8, align 8, !tbaa !18
  %15 = load i64, ptr %4, align 8, !tbaa !18
  %16 = load ptr, ptr %5, align 8, !tbaa !9
  %17 = getelementptr inbounds nuw i8, ptr %16, i32 1
  store ptr %17, ptr %5, align 8, !tbaa !9
  %18 = load i8, ptr %16, align 1, !tbaa !15
  %19 = zext i8 %18 to i32
  %20 = zext i32 %19 to i64
  %21 = lshr i64 %15, %20
  %22 = and i64 %21, 1
  %23 = add i64 %14, %22
  %24 = load i64, ptr %8, align 8, !tbaa !18
  %25 = add i64 %24, %23
  store i64 %25, ptr %8, align 8, !tbaa !18
  br label %26

26:                                               ; preds = %13
  %27 = load i32, ptr %7, align 4, !tbaa !11
  %28 = add nsw i32 %27, 1
  store i32 %28, ptr %7, align 4, !tbaa !11
  br label %9, !llvm.loop !23

29:                                               ; preds = %9
  %30 = load i64, ptr %8, align 8, !tbaa !18
  call void @llvm.lifetime.end.p0(i64 8, ptr %8) #6
  call void @llvm.lifetime.end.p0(i64 4, ptr %7) #6
  ret i64 %30
}

; Function Attrs: alwaysinline nounwind willreturn memory(none) uwtable
define internal i32 @av_bswap32(i32 noundef %0) #4 {
  %2 = alloca i32, align 4
  store i32 %0, ptr %2, align 4, !tbaa !11
  %3 = load i32, ptr %2, align 4, !tbaa !11
  %4 = shl i32 %3, 8
  %5 = and i32 %4, 65280
  %6 = load i32, ptr %2, align 4, !tbaa !11
  %7 = lshr i32 %6, 8
  %8 = and i32 %7, 255
  %9 = or i32 %5, %8
  %10 = shl i32 %9, 16
  %11 = load i32, ptr %2, align 4, !tbaa !11
  %12 = lshr i32 %11, 16
  %13 = shl i32 %12, 8
  %14 = and i32 %13, 65280
  %15 = load i32, ptr %2, align 4, !tbaa !11
  %16 = lshr i32 %15, 16
  %17 = lshr i32 %16, 8
  %18 = and i32 %17, 255
  %19 = or i32 %14, %18
  %20 = or i32 %10, %19
  ret i32 %20
}

; Function Attrs: nounwind uwtable
define internal void @gen_roundkeys(ptr noundef %0, i64 noundef %1) #0 {
  %3 = alloca ptr, align 8
  %4 = alloca i64, align 8
  %5 = alloca i32, align 4
  %6 = alloca i64, align 8
  store ptr %0, ptr %3, align 8, !tbaa !16
  store i64 %1, ptr %4, align 8, !tbaa !18
  call void @llvm.lifetime.start.p0(i64 4, ptr %5) #6
  call void @llvm.lifetime.start.p0(i64 8, ptr %6) #6
  %7 = load i64, ptr %4, align 8, !tbaa !18
  %8 = call i64 @shuffle(i64 noundef %7, ptr noundef @PC1_shuffle, i32 noundef 56)
  store i64 %8, ptr %6, align 8, !tbaa !18
  store i32 0, ptr %5, align 4, !tbaa !11
  br label %9

9:                                                ; preds = %33, %2
  %10 = load i32, ptr %5, align 4, !tbaa !11
  %11 = icmp slt i32 %10, 16
  br i1 %11, label %12, label %36

12:                                               ; preds = %9
  %13 = load i64, ptr %6, align 8, !tbaa !18
  %14 = call i64 @key_shift_left(i64 noundef %13)
  store i64 %14, ptr %6, align 8, !tbaa !18
  %15 = load i32, ptr %5, align 4, !tbaa !11
  %16 = icmp sgt i32 %15, 1
  br i1 %16, label %17, label %26

17:                                               ; preds = %12
  %18 = load i32, ptr %5, align 4, !tbaa !11
  %19 = icmp ne i32 %18, 8
  br i1 %19, label %20, label %26

20:                                               ; preds = %17
  %21 = load i32, ptr %5, align 4, !tbaa !11
  %22 = icmp ne i32 %21, 15
  br i1 %22, label %23, label %26

23:                                               ; preds = %20
  %24 = load i64, ptr %6, align 8, !tbaa !18
  %25 = call i64 @key_shift_left(i64 noundef %24)
  store i64 %25, ptr %6, align 8, !tbaa !18
  br label %26

26:                                               ; preds = %23, %20, %17, %12
  %27 = load i64, ptr %6, align 8, !tbaa !18
  %28 = call i64 @shuffle(i64 noundef %27, ptr noundef @PC2_shuffle, i32 noundef 48)
  %29 = load ptr, ptr %3, align 8, !tbaa !16
  %30 = load i32, ptr %5, align 4, !tbaa !11
  %31 = sext i32 %30 to i64
  %32 = getelementptr inbounds i64, ptr %29, i64 %31
  store i64 %28, ptr %32, align 8, !tbaa !18
  br label %33

33:                                               ; preds = %26
  %34 = load i32, ptr %5, align 4, !tbaa !11
  %35 = add nsw i32 %34, 1
  store i32 %35, ptr %5, align 4, !tbaa !11
  br label %9, !llvm.loop !20

36:                                               ; preds = %9
  call void @llvm.lifetime.end.p0(i64 8, ptr %6) #6
  call void @llvm.lifetime.end.p0(i64 4, ptr %5) #6
  ret void
}

; Function Attrs: inlinehint nounwind willreturn memory(none) uwtable
define internal i64 @av_bswap64(i64 noundef %0) #2 {
  %2 = alloca i64, align 8
  store i64 %0, ptr %2, align 8, !tbaa !18
  %3 = load i64, ptr %2, align 8, !tbaa !18
  %4 = trunc i64 %3 to i32
  %5 = call i32 @av_bswap32(i32 noundef %4) #5
  %6 = zext i32 %5 to i64
  %7 = shl i64 %6, 32
  %8 = load i64, ptr %2, align 8, !tbaa !18
  %9 = lshr i64 %8, 32
  %10 = trunc i64 %9 to i32
  %11 = call i32 @av_bswap32(i32 noundef %10) #5
  %12 = zext i32 %11 to i64
  %13 = or i64 %7, %12
  ret i64 %13
}

; Function Attrs: nounwind uwtable
define i32 @av_des_init(ptr noundef %0, ptr noundef %1, i32 noundef %2, i32 noundef %3) #0 {
  %5 = alloca i32, align 4
  %6 = alloca ptr, align 8
  %7 = alloca ptr, align 8
  %8 = alloca i32, align 4
  %9 = alloca i32, align 4
  store ptr %0, ptr %6, align 8, !tbaa !4
  store ptr %1, ptr %7, align 8, !tbaa !9
  store i32 %2, ptr %8, align 4, !tbaa !11
  store i32 %3, ptr %9, align 4, !tbaa !11
  %10 = load i32, ptr %8, align 4, !tbaa !11
  %11 = icmp ne i32 %10, 64
  br i1 %11, label %12, label %16

12:                                               ; preds = %4
  %13 = load i32, ptr %8, align 4, !tbaa !11
  %14 = icmp ne i32 %13, 192
  br i1 %14, label %15, label %16

15:                                               ; preds = %12
  store i32 -22, ptr %5, align 4
  br label %51

16:                                               ; preds = %12, %4
  %17 = load i32, ptr %8, align 4, !tbaa !11
  %18 = icmp sgt i32 %17, 64
  %19 = zext i1 %18 to i32
  %20 = load ptr, ptr %6, align 8, !tbaa !4
  %21 = getelementptr inbounds nuw %struct.AVDES, ptr %20, i32 0, i32 1
  store i32 %19, ptr %21, align 8, !tbaa !13
  %22 = load ptr, ptr %6, align 8, !tbaa !4
  %23 = getelementptr inbounds nuw %struct.AVDES, ptr %22, i32 0, i32 0
  %24 = getelementptr inbounds [3 x [16 x i64]], ptr %23, i64 0, i64 0
  %25 = getelementptr inbounds [16 x i64], ptr %24, i64 0, i64 0
  %26 = load ptr, ptr %7, align 8, !tbaa !9
  %27 = load i64, ptr %26, align 1, !tbaa !15
  %28 = call i64 @av_bswap64(i64 noundef %27) #5
  call void @gen_roundkeys(ptr noundef %25, i64 noundef %28)
  %29 = load ptr, ptr %6, align 8, !tbaa !4
  %30 = getelementptr inbounds nuw %struct.AVDES, ptr %29, i32 0, i32 1
  %31 = load i32, ptr %30, align 8, !tbaa !13
  %32 = icmp ne i32 %31, 0
  br i1 %32, label %33, label %50

33:                                               ; preds = %16
  %34 = load ptr, ptr %6, align 8, !tbaa !4
  %35 = getelementptr inbounds nuw %struct.AVDES, ptr %34, i32 0, i32 0
  %36 = getelementptr inbounds [3 x [16 x i64]], ptr %35, i64 0, i64 1
  %37 = getelementptr inbounds [16 x i64], ptr %36, i64 0, i64 0
  %38 = load ptr, ptr %7, align 8, !tbaa !9
  %39 = getelementptr inbounds i8, ptr %38, i64 8
  %40 = load i64, ptr %39, align 1, !tbaa !15
  %41 = call i64 @av_bswap64(i64 noundef %40) #5
  call void @gen_roundkeys(ptr noundef %37, i64 noundef %41)
  %42 = load ptr, ptr %6, align 8, !tbaa !4
  %43 = getelementptr inbounds nuw %struct.AVDES, ptr %42, i32 0, i32 0
  %44 = getelementptr inbounds [3 x [16 x i64]], ptr %43, i64 0, i64 2
  %45 = getelementptr inbounds [16 x i64], ptr %44, i64 0, i64 0
  %46 = load ptr, ptr %7, align 8, !tbaa !9
  %47 = getelementptr inbounds i8, ptr %46, i64 16
  %48 = load i64, ptr %47, align 1, !tbaa !15
  %49 = call i64 @av_bswap64(i64 noundef %48) #5
  call void @gen_roundkeys(ptr noundef %45, i64 noundef %49)
  br label %50

50:                                               ; preds = %33, %16
  store i32 0, ptr %5, align 4
  br label %51

51:                                               ; preds = %50, %15
  %52 = load i32, ptr %5, align 4
  ret i32 %52
}