; Function Attrs: nofree norecurse nosync nounwind memory(argmem: readwrite) uwtable
define range(i32 -22, 1) i32 @av_des_init(ptr noundef writeonly captures(none) %0, ptr noundef readonly captures(none) %1, i32 noundef %2, i32 noundef %3) local_unnamed_addr #2 {
  %5 = and i32 %2, -129
  %or.cond.not = icmp eq i32 %5, 64
  br i1 %or.cond.not, label %6, label %gen_roundkeys.exit47

6:                                                ; preds = %4
  %7 = icmp samesign ugt i32 %2, 64
  %8 = zext i1 %7 to i32
  %9 = getelementptr inbounds nuw i8, ptr %0, i64 384
  store i32 %8, ptr %9, align 8, !tbaa !4
  %10 = load i64, ptr %1, align 1, !tbaa !9
  %11 = tail call noundef i64 @llvm.bswap.i64(i64 %10)
  br label %12

12:                                               ; preds = %12, %6
  %.011.i.i = phi i64 [ 0, %6 ], [ %18, %12 ]
  %.0710.i.i = phi i32 [ 0, %6 ], [ %19, %12 ]
  %.089.i.i = phi ptr [ @PC1_shuffle, %6 ], [ %13, %12 ]
  %13 = getelementptr inbounds nuw i8, ptr %.089.i.i, i64 1
  %14 = load i8, ptr %.089.i.i, align 1, !tbaa !9
  %15 = zext nneg i8 %14 to i64
  %16 = lshr i64 %11, %15
  %17 = and i64 %16, 1
  %reass.add.i.i = shl i64 %.011.i.i, 1
  %18 = or disjoint i64 %17, %reass.add.i.i
  %19 = add nuw nsw i32 %.0710.i.i, 1
  %exitcond.not.i.i = icmp eq i32 %19, 56
  br i1 %exitcond.not.i.i, label %shuffle.exit.preheader.i, label %12, !llvm.loop !10

shuffle.exit.preheader.i:                         ; preds = %12, %shuffle.exit19.i
  %indvars.iv.i = phi i64 [ %indvars.iv.next.i, %shuffle.exit19.i ], [ 0, %12 ]
  %.022.i = phi i64 [ %.1.i, %shuffle.exit19.i ], [ %18, %12 ]
  %20 = lshr i64 %.022.i, 27
  %21 = and i64 %20, 268435457
  %22 = shl i64 %.022.i, 1
  %23 = and i64 %22, -268435458
  %24 = or disjoint i64 %23, %21
  %25 = trunc nuw nsw i64 %indvars.iv.i to i32
  switch i32 %25, label %26 [
    i32 15, label %32
    i32 8, label %32
    i32 1, label %32
    i32 0, label %32
  ]

26:                                               ; preds = %shuffle.exit.preheader.i
  %27 = lshr i64 %22, 27
  %28 = and i64 %27, 268435457
  %29 = shl i64 %24, 1
  %30 = and i64 %29, -268435458
  %31 = or disjoint i64 %30, %28
  br label %32

32:                                               ; preds = %26, %shuffle.exit.preheader.i, %shuffle.exit.preheader.i, %shuffle.exit.preheader.i, %shuffle.exit.preheader.i
  %.1.i = phi i64 [ %31, %26 ], [ %24, %shuffle.exit.preheader.i ], [ %24, %shuffle.exit.preheader.i ], [ %24, %shuffle.exit.preheader.i ], [ %24, %shuffle.exit.preheader.i ]
  br label %33

33:                                               ; preds = %33, %32
  %.011.i14.i = phi i64 [ 0, %32 ], [ %39, %33 ]
  %.0710.i15.i = phi i32 [ 0, %32 ], [ %40, %33 ]
  %.089.i16.i = phi ptr [ @PC2_shuffle, %32 ], [ %34, %33 ]
  %34 = getelementptr inbounds nuw i8, ptr %.089.i16.i, i64 1
  %35 = load i8, ptr %.089.i16.i, align 1, !tbaa !9
  %36 = zext nneg i8 %35 to i64
  %37 = lshr i64 %.1.i, %36
  %38 = and i64 %37, 1
  %reass.add.i17.i = shl i64 %.011.i14.i, 1
  %39 = or disjoint i64 %38, %reass.add.i17.i
  %40 = add nuw nsw i32 %.0710.i15.i, 1
  %exitcond.not.i18.i = icmp eq i32 %40, 48
  br i1 %exitcond.not.i18.i, label %shuffle.exit19.i, label %33, !llvm.loop !10

shuffle.exit19.i:                                 ; preds = %33
  %41 = getelementptr inbounds nuw i64, ptr %0, i64 %indvars.iv.i
  store i64 %39, ptr %41, align 8, !tbaa !12
  %indvars.iv.next.i = add nuw nsw i64 %indvars.iv.i, 1
  %exitcond.not.i = icmp eq i64 %indvars.iv.next.i, 16
  br i1 %exitcond.not.i, label %gen_roundkeys.exit, label %shuffle.exit.preheader.i, !llvm.loop !14

gen_roundkeys.exit:                               ; preds = %shuffle.exit19.i
  br i1 %7, label %42, label %gen_roundkeys.exit47

42:                                               ; preds = %gen_roundkeys.exit
  %43 = getelementptr inbounds nuw i8, ptr %1, i64 8
  %44 = load i64, ptr %43, align 1, !tbaa !9
  %45 = tail call noundef i64 @llvm.bswap.i64(i64 %44)
  br label %46

46:                                               ; preds = %46, %42
  %.011.i.i12 = phi i64 [ 0, %42 ], [ %52, %46 ]
  %.0710.i.i13 = phi i32 [ 0, %42 ], [ %53, %46 ]
  %.089.i.i14 = phi ptr [ @PC1_shuffle, %42 ], [ %47, %46 ]
  %47 = getelementptr inbounds nuw i8, ptr %.089.i.i14, i64 1
  %48 = load i8, ptr %.089.i.i14, align 1, !tbaa !9
  %49 = zext nneg i8 %48 to i64
  %50 = lshr i64 %45, %49
  %51 = and i64 %50, 1
  %reass.add.i.i15 = shl i64 %.011.i.i12, 1
  %52 = or disjoint i64 %51, %reass.add.i.i15
  %53 = add nuw nsw i32 %.0710.i.i13, 1
  %exitcond.not.i.i16 = icmp eq i32 %53, 56
  br i1 %exitcond.not.i.i16, label %shuffle.exit.preheader.i17.preheader, label %46, !llvm.loop !10

shuffle.exit.preheader.i17.preheader:             ; preds = %46
  %54 = getelementptr inbounds nuw i8, ptr %0, i64 128
  br label %shuffle.exit.preheader.i17

shuffle.exit.preheader.i17:                       ; preds = %shuffle.exit.preheader.i17.preheader, %shuffle.exit19.i26
  %indvars.iv.i18 = phi i64 [ %indvars.iv.next.i27, %shuffle.exit19.i26 ], [ 0, %shuffle.exit.preheader.i17.preheader ]
  %.022.i19 = phi i64 [ %.1.i20, %shuffle.exit19.i26 ], [ %52, %shuffle.exit.preheader.i17.preheader ]
  %55 = lshr i64 %.022.i19, 27
  %56 = and i64 %55, 268435457
  %57 = shl i64 %.022.i19, 1
  %58 = and i64 %57, -268435458
  %59 = or disjoint i64 %58, %56
  %60 = trunc nuw nsw i64 %indvars.iv.i18 to i32
  switch i32 %60, label %61 [
    i32 15, label %67
    i32 8, label %67
    i32 1, label %67
    i32 0, label %67
  ]

61:                                               ; preds = %shuffle.exit.preheader.i17
  %62 = lshr i64 %57, 27
  %63 = and i64 %62, 268435457
  %64 = shl i64 %59, 1
  %65 = and i64 %64, -268435458
  %66 = or disjoint i64 %65, %63
  br label %67

67:                                               ; preds = %61, %shuffle.exit.preheader.i17, %shuffle.exit.preheader.i17, %shuffle.exit.preheader.i17, %shuffle.exit.preheader.i17
  %.1.i20 = phi i64 [ %66, %61 ], [ %59, %shuffle.exit.preheader.i17 ], [ %59, %shuffle.exit.preheader.i17 ], [ %59, %shuffle.exit.preheader.i17 ], [ %59, %shuffle.exit.preheader.i17 ]
  br label %68

68:                                               ; preds = %68, %67
  %.011.i14.i21 = phi i64 [ 0, %67 ], [ %74, %68 ]
  %.0710.i15.i22 = phi i32 [ 0, %67 ], [ %75, %68 ]
  %.089.i16.i23 = phi ptr [ @PC2_shuffle, %67 ], [ %69, %68 ]
  %69 = getelementptr inbounds nuw i8, ptr %.089.i16.i23, i64 1
  %70 = load i8, ptr %.089.i16.i23, align 1, !tbaa !9
  %71 = zext nneg i8 %70 to i64
  %72 = lshr i64 %.1.i20, %71
  %73 = and i64 %72, 1
  %reass.add.i17.i24 = shl i64 %.011.i14.i21, 1
  %74 = or disjoint i64 %73, %reass.add.i17.i24
  %75 = add nuw nsw i32 %.0710.i15.i22, 1
  %exitcond.not.i18.i25 = icmp eq i32 %75, 48
  br i1 %exitcond.not.i18.i25, label %shuffle.exit19.i26, label %68, !llvm.loop !10

shuffle.exit19.i26:                               ; preds = %68
  %76 = getelementptr inbounds nuw i64, ptr %54, i64 %indvars.iv.i18
  store i64 %74, ptr %76, align 8, !tbaa !12
  %indvars.iv.next.i27 = add nuw nsw i64 %indvars.iv.i18, 1
  %exitcond.not.i28 = icmp eq i64 %indvars.iv.next.i27, 16
  br i1 %exitcond.not.i28, label %gen_roundkeys.exit29, label %shuffle.exit.preheader.i17, !llvm.loop !14

gen_roundkeys.exit29:                             ; preds = %shuffle.exit19.i26
  %77 = getelementptr inbounds nuw i8, ptr %1, i64 16
  %78 = load i64, ptr %77, align 1, !tbaa !9
  %79 = tail call noundef i64 @llvm.bswap.i64(i64 %78)
  br label %80

80:                                               ; preds = %80, %gen_roundkeys.exit29
  %.011.i.i30 = phi i64 [ 0, %gen_roundkeys.exit29 ], [ %86, %80 ]
  %.0710.i.i31 = phi i32 [ 0, %gen_roundkeys.exit29 ], [ %87, %80 ]
  %.089.i.i32 = phi ptr [ @PC1_shuffle, %gen_roundkeys.exit29 ], [ %81, %80 ]
  %81 = getelementptr inbounds nuw i8, ptr %.089.i.i32, i64 1
  %82 = load i8, ptr %.089.i.i32, align 1, !tbaa !9
  %83 = zext nneg i8 %82 to i64
  %84 = lshr i64 %79, %83
  %85 = and i64 %84, 1
  %reass.add.i.i33 = shl i64 %.011.i.i30, 1
  %86 = or disjoint i64 %85, %reass.add.i.i33
  %87 = add nuw nsw i32 %.0710.i.i31, 1
  %exitcond.not.i.i34 = icmp eq i32 %87, 56
  br i1 %exitcond.not.i.i34, label %shuffle.exit.preheader.i35.preheader, label %80, !llvm.loop !10

shuffle.exit.preheader.i35.preheader:             ; preds = %80
  %88 = getelementptr inbounds nuw i8, ptr %0, i64 256
  br label %shuffle.exit.preheader.i35

shuffle.exit.preheader.i35:                       ; preds = %shuffle.exit.preheader.i35.preheader, %shuffle.exit19.i44
  %indvars.iv.i36 = phi i64 [ %indvars.iv.next.i45, %shuffle.exit19.i44 ], [ 0, %shuffle.exit.preheader.i35.preheader ]
  %.022.i37 = phi i64 [ %.1.i38, %shuffle.exit19.i44 ], [ %86, %shuffle.exit.preheader.i35.preheader ]
  %89 = lshr i64 %.022.i37, 27
  %90 = and i64 %89, 268435457
  %91 = shl i64 %.022.i37, 1
  %92 = and i64 %91, -268435458
  %93 = or disjoint i64 %92, %90
  %94 = trunc nuw nsw i64 %indvars.iv.i36 to i32
  switch i32 %94, label %95 [
    i32 15, label %101
    i32 8, label %101
    i32 1, label %101
    i32 0, label %101
  ]

95:                                               ; preds = %shuffle.exit.preheader.i35
  %96 = lshr i64 %91, 27
  %97 = and i64 %96, 268435457
  %98 = shl i64 %93, 1
  %99 = and i64 %98, -268435458
  %100 = or disjoint i64 %99, %97
  br label %101

101:                                              ; preds = %95, %shuffle.exit.preheader.i35, %shuffle.exit.preheader.i35, %shuffle.exit.preheader.i35, %shuffle.exit.preheader.i35
  %.1.i38 = phi i64 [ %100, %95 ], [ %93, %shuffle.exit.preheader.i35 ], [ %93, %shuffle.exit.preheader.i35 ], [ %93, %shuffle.exit.preheader.i35 ], [ %93, %shuffle.exit.preheader.i35 ]
  br label %102

102:                                              ; preds = %102, %101
  %.011.i14.i39 = phi i64 [ 0, %101 ], [ %108, %102 ]
  %.0710.i15.i40 = phi i32 [ 0, %101 ], [ %109, %102 ]
  %.089.i16.i41 = phi ptr [ @PC2_shuffle, %101 ], [ %103, %102 ]
  %103 = getelementptr inbounds nuw i8, ptr %.089.i16.i41, i64 1
  %104 = load i8, ptr %.089.i16.i41, align 1, !tbaa !9
  %105 = zext nneg i8 %104 to i64
  %106 = lshr i64 %.1.i38, %105
  %107 = and i64 %106, 1
  %reass.add.i17.i42 = shl i64 %.011.i14.i39, 1
  %108 = or disjoint i64 %107, %reass.add.i17.i42
  %109 = add nuw nsw i32 %.0710.i15.i40, 1
  %exitcond.not.i18.i43 = icmp eq i32 %109, 48
  br i1 %exitcond.not.i18.i43, label %shuffle.exit19.i44, label %102, !llvm.loop !10

shuffle.exit19.i44:                               ; preds = %102
  %110 = getelementptr inbounds nuw i64, ptr %88, i64 %indvars.iv.i36
  store i64 %108, ptr %110, align 8, !tbaa !12
  %indvars.iv.next.i45 = add nuw nsw i64 %indvars.iv.i36, 1
  %exitcond.not.i46 = icmp eq i64 %indvars.iv.next.i45, 16
  br i1 %exitcond.not.i46, label %gen_roundkeys.exit47, label %shuffle.exit.preheader.i35, !llvm.loop !14

gen_roundkeys.exit47:                             ; preds = %shuffle.exit19.i44, %gen_roundkeys.exit, %4
  %.0 = phi i32 [ -22, %4 ], [ 0, %gen_roundkeys.exit ], [ 0, %shuffle.exit19.i44 ]
  ret i32 %.0
}